target datalayout = "e-m:e-p270:32:32-p271:32:32-p272:64:64-i64:64-i128:128-f80:128-n8:16:32:64-S128"
target triple = "x86_64-pc-linux-gnu"

%struct.curl_version_info_data = type { i32, ptr, i32, ptr, i32, ptr, i64, ptr, ptr, ptr, i32, ptr, i32, ptr, i32, ptr, i32, ptr, ptr, ptr, ptr, i32, ptr, ptr, ptr, ptr, ptr }
%struct.feat = type { ptr, ptr, i32 }

@curl_version_info.ssl_buffer = internal global [80 x i8] zeroinitializer, align 16
@curl_version_info.brotli_buffer = internal global [80 x i8] zeroinitializer, align 16
@curl_version_info.zstd_buffer = internal global [80 x i8] zeroinitializer, align 16
@.str.2 = private unnamed_addr constant [6 x i8] c"2.3.2\00", align 1
@feature_names = internal global [17 x ptr] zeroinitializer, align 16
@.str.3 = private unnamed_addr constant [16 x i8] c"brotli/%u.%u.%u\00", align 1
@.str.4 = private unnamed_addr constant [14 x i8] c"zstd/%u.%u.%u\00", align 1

; Function Attrs: nounwind uwtable
define internal void @zstd_version(ptr noundef %0, i64 noundef %1) #0 {
  %3 = alloca ptr, align 8
  %4 = alloca i64, align 8
  %5 = alloca i32, align 4
  %6 = alloca i32, align 4
  %7 = alloca i32, align 4
  %8 = alloca i32, align 4
  store ptr %0, ptr %3, align 8, !tbaa !7
  store i64 %1, ptr %4, align 8, !tbaa !10
  call void @llvm.lifetime.start.p0(i64 4, ptr %5) #5
  %9 = call i32 @ZSTD_versionNumber()
  store i32 %9, ptr %5, align 4, !tbaa !3
  call void @llvm.lifetime.start.p0(i64 4, ptr %6) #5
  %10 = load i32, ptr %5, align 4, !tbaa !3
  %11 = udiv i32 %10, 10000
  store i32 %11, ptr %6, align 4, !tbaa !3
  call void @llvm.lifetime.start.p0(i64 4, ptr %7) #5
  %12 = load i32, ptr %5, align 4, !tbaa !3
  %13 = load i32, ptr %6, align 4, !tbaa !3
  %14 = mul i32 %13, 100
  %15 = mul i32 %14, 100
  %16 = sub i32 %12, %15
  %17 = udiv i32 %16, 100
  store i32 %17, ptr %7, align 4, !tbaa !3
  call void @llvm.lifetime.start.p0(i64 4, ptr %8) #5
  %18 = load i32, ptr %5, align 4, !tbaa !3
  %19 = load i32, ptr %6, align 4, !tbaa !3
  %20 = mul i32 %19, 100
  %21 = mul i32 %20, 100
  %22 = sub i32 %18, %21
  %23 = load i32, ptr %7, align 4, !tbaa !3
  %24 = mul i32 %23, 100
  %25 = sub i32 %22, %24
  store i32 %25, ptr %8, align 4, !tbaa !3
  %26 = load ptr, ptr %3, align 8, !tbaa !7
  %27 = load i64, ptr %4, align 8, !tbaa !10
  %28 = load i32, ptr %6, align 4, !tbaa !3
  %29 = load i32, ptr %7, align 4, !tbaa !3
  %30 = load i32, ptr %8, align 4, !tbaa !3
  %31 = call i32 (ptr, i64, ptr, ...) @curl_msnprintf(ptr noundef %26, i64 noundef %27, ptr noundef @.str.4, i32 noundef %28, i32 noundef %29, i32 noundef %30)
  call void @llvm.lifetime.end.p0(i64 4, ptr %8) #5
  call void @llvm.lifetime.end.p0(i64 4, ptr %7) #5
  call void @llvm.lifetime.end.p0(i64 4, ptr %6) #5
  call void @llvm.lifetime.end.p0(i64 4, ptr %5) #5
  ret void
}

; Function Attrs: nounwind uwtable
define internal void @brotli_version(ptr noundef %0, i64 noundef %1) #0 {
  %3 = alloca ptr, align 8
  %4 = alloca i64, align 8
  %5 = alloca i32, align 4
  %6 = alloca i32, align 4
  %7 = alloca i32, align 4
  %8 = alloca i32, align 4
  store ptr %0, ptr %3, align 8, !tbaa !7
  store i64 %1, ptr %4, align 8, !tbaa !10
  call void @llvm.lifetime.start.p0(i64 4, ptr %5) #5
  %9 = call i32 @BrotliDecoderVersion()
  store i32 %9, ptr %5, align 4, !tbaa !3
  call void @llvm.lifetime.start.p0(i64 4, ptr %6) #5
  %10 = load i32, ptr %5, align 4, !tbaa !3
  %11 = lshr i32 %10, 24
  store i32 %11, ptr %6, align 4, !tbaa !3
  call void @llvm.lifetime.start.p0(i64 4, ptr %7) #5
  %12 = load i32, ptr %5, align 4, !tbaa !3
  %13 = and i32 %12, 16777215
  %14 = lshr i32 %13, 12
  store i32 %14, ptr %7, align 4, !tbaa !3
  call void @llvm.lifetime.start.p0(i64 4, ptr %8) #5
  %15 = load i32, ptr %5, align 4, !tbaa !3
  %16 = and i32 %15, 4095
  store i32 %16, ptr %8, align 4, !tbaa !3
  %17 = load ptr, ptr %3, align 8, !tbaa !7
  %18 = load i64, ptr %4, align 8, !tbaa !10
  %19 = load i32, ptr %6, align 4, !tbaa !3
  %20 = load i32, ptr %7, align 4, !tbaa !3
  %21 = load i32, ptr %8, align 4, !tbaa !3
  %22 = call i32 (ptr, i64, ptr, ...) @curl_msnprintf(ptr noundef %17, i64 noundef %18, ptr noundef @.str.3, i32 noundef %19, i32 noundef %20, i32 noundef %21)
  call void @llvm.lifetime.end.p0(i64 4, ptr %8) #5
  call void @llvm.lifetime.end.p0(i64 4, ptr %7) #5
  call void @llvm.lifetime.end.p0(i64 4, ptr %6) #5
  call void @llvm.lifetime.end.p0(i64 4, ptr %5) #5
  ret void
}

; Function Attrs: nounwind uwtable
define ptr @curl_version_info(i32 noundef %0) #0 {
  %2 = alloca i32, align 4
  %3 = alloca i64, align 8
  %4 = alloca ptr, align 8
  %5 = alloca i32, align 4
  store i32 %0, ptr %2, align 4, !tbaa !3
  call void @llvm.lifetime.start.p0(i64 8, ptr %3) #5
  call void @llvm.lifetime.start.p0(i64 8, ptr %4) #5
  call void @llvm.lifetime.start.p0(i64 4, ptr %5) #5
  store i32 0, ptr %5, align 4, !tbaa !3
  call void @Curl_ssl_version(ptr noundef @curl_version_info.ssl_buffer, i64 noundef 80)
  store ptr @curl_version_info.ssl_buffer, ptr getelementptr inbounds nuw (%struct.curl_version_info_data, ptr @version_info, i32 0, i32 5), align 8, !tbaa !15
  %6 = call ptr @zlibVersion()
  store ptr %6, ptr getelementptr inbounds nuw (%struct.curl_version_info_data, ptr @version_info, i32 0, i32 7), align 8, !tbaa !18
  %7 = call ptr @idn2_check_version(ptr noundef @.str.2) #6
  store ptr %7, ptr getelementptr inbounds nuw (%struct.curl_version_info_data, ptr @version_info, i32 0, i32 11), align 8, !tbaa !19
  %8 = call i32 @BrotliDecoderVersion()
  store i32 %8, ptr getelementptr inbounds nuw (%struct.curl_version_info_data, ptr @version_info, i32 0, i32 14), align 8, !tbaa !20
  call void @brotli_version(ptr noundef @curl_version_info.brotli_buffer, i64 noundef 80)
  store ptr @curl_version_info.brotli_buffer, ptr getelementptr inbounds nuw (%struct.curl_version_info_data, ptr @version_info, i32 0, i32 15), align 8, !tbaa !21
  %9 = call i32 @ZSTD_versionNumber()
  store i32 %9, ptr getelementptr inbounds nuw (%struct.curl_version_info_data, ptr @version_info, i32 0, i32 21), align 8, !tbaa !22
  call void @zstd_version(ptr noundef @curl_version_info.zstd_buffer, i64 noundef 80)
  store ptr @curl_version_info.zstd_buffer, ptr getelementptr inbounds nuw (%struct.curl_version_info_data, ptr @version_info, i32 0, i32 22), align 8, !tbaa !23
  store i64 0, ptr %3, align 8, !tbaa !10
  store ptr @features_table, ptr %4, align 8, !tbaa !24
  br label %10

10:                                               ; preds = %39, %1
  %11 = load ptr, ptr %4, align 8, !tbaa !24
  %12 = getelementptr inbounds nuw %struct.feat, ptr %11, i32 0, i32 0
  %13 = load ptr, ptr %12, align 8, !tbaa !26
  %14 = icmp ne ptr %13, null
  br i1 %14, label %15, label %42

15:                                               ; preds = %10
  %16 = load ptr, ptr %4, align 8, !tbaa !24
  %17 = getelementptr inbounds nuw %struct.feat, ptr %16, i32 0, i32 1
  %18 = load ptr, ptr %17, align 8, !tbaa !28
  %19 = icmp ne ptr %18, null
  br i1 %19, label %20, label %26

20:                                               ; preds = %15
  %21 = load ptr, ptr %4, align 8, !tbaa !24
  %22 = getelementptr inbounds nuw %struct.feat, ptr %21, i32 0, i32 1
  %23 = load ptr, ptr %22, align 8, !tbaa !28
  %24 = call i32 %23(ptr noundef @version_info)
  %25 = icmp ne i32 %24, 0
  br i1 %25, label %26, label %38

26:                                               ; preds = %20, %15
  %27 = load ptr, ptr %4, align 8, !tbaa !24
  %28 = getelementptr inbounds nuw %struct.feat, ptr %27, i32 0, i32 2
  %29 = load i32, ptr %28, align 8, !tbaa !29
  %30 = load i32, ptr %5, align 4, !tbaa !3
  %31 = or i32 %30, %29
  store i32 %31, ptr %5, align 4, !tbaa !3
  %32 = load ptr, ptr %4, align 8, !tbaa !24
  %33 = getelementptr inbounds nuw %struct.feat, ptr %32, i32 0, i32 0
  %34 = load ptr, ptr %33, align 8, !tbaa !26
  %35 = load i64, ptr %3, align 8, !tbaa !10
  %36 = add i64 %35, 1
  store i64 %36, ptr %3, align 8, !tbaa !10
  %37 = getelementptr inbounds nuw [17 x ptr], ptr @feature_names, i64 0, i64 %35
  store ptr %34, ptr %37, align 8, !tbaa !7
  br label %38

38:                                               ; preds = %26, %20
  br label %39

39:                                               ; preds = %38
  %40 = load ptr, ptr %4, align 8, !tbaa !24
  %41 = getelementptr inbounds nuw %struct.feat, ptr %40, i32 1
  store ptr %41, ptr %4, align 8, !tbaa !24
  br label %10, !llvm.loop !30

42:                                               ; preds = %10
  %43 = load i64, ptr %3, align 8, !tbaa !10
  %44 = getelementptr inbounds nuw [17 x ptr], ptr @feature_names, i64 0, i64 %43
  store ptr null, ptr %44, align 8, !tbaa !7
  %45 = load i32, ptr %5, align 4, !tbaa !3
  store i32 %45, ptr getelementptr inbounds nuw (%struct.curl_version_info_data, ptr @version_info, i32 0, i32 4), align 8, !tbaa !31
  call void @llvm.lifetime.end.p0(i64 4, ptr %5) #5
  call void @llvm.lifetime.end.p0(i64 8, ptr %4) #5
  call void @llvm.lifetime.end.p0(i64 8, ptr %3) #5
  ret ptr @version_info
}