; Function Attrs: nounwind uwtable
define noundef ptr @curl_version_info(i32 noundef %0) local_unnamed_addr #0 {
  tail call void @Curl_ssl_version(ptr noundef nonnull @curl_version_info.ssl_buffer, i64 noundef 80) #7
  store ptr @curl_version_info.ssl_buffer, ptr getelementptr inbounds nuw (i8, ptr @version_info, i64 40), align 8, !tbaa !11
  %2 = tail call ptr @zlibVersion() #7
  store ptr %2, ptr getelementptr inbounds nuw (i8, ptr @version_info, i64 56), align 8, !tbaa !16
  %3 = tail call ptr @idn2_check_version(ptr noundef nonnull @.str.2) #8
  store ptr %3, ptr getelementptr inbounds nuw (i8, ptr @version_info, i64 88), align 8, !tbaa !17
  %4 = tail call i32 @BrotliDecoderVersion() #7
  store i32 %4, ptr getelementptr inbounds nuw (i8, ptr @version_info, i64 112), align 8, !tbaa !18
  %5 = tail call i32 @BrotliDecoderVersion() #7
  %6 = lshr i32 %5, 24
  %7 = lshr i32 %5, 12
  %8 = and i32 %7, 4095
  %9 = and i32 %5, 4095
  %10 = tail call i32 (ptr, i64, ptr, ...) @curl_msnprintf(ptr noundef nonnull @curl_version_info.brotli_buffer, i64 noundef 80, ptr noundef nonnull @.str.3, i32 noundef %6, i32 noundef %8, i32 noundef %9) #7
  store ptr @curl_version_info.brotli_buffer, ptr getelementptr inbounds nuw (i8, ptr @version_info, i64 120), align 8, !tbaa !19
  %11 = tail call i32 @ZSTD_versionNumber() #7
  store i32 %11, ptr getelementptr inbounds nuw (i8, ptr @version_info, i64 168), align 8, !tbaa !20
  %12 = tail call i32 @ZSTD_versionNumber() #7
  %13 = udiv i32 %12, 10000
  %.neg.i = mul i32 %13, -10000
  %14 = add i32 %.neg.i, %12
  %15 = udiv i32 %14, 100
  %.neg10.i = mul i32 %15, -100
  %16 = add i32 %.neg10.i, %14
  %17 = tail call i32 (ptr, i64, ptr, ...) @curl_msnprintf(ptr noundef nonnull @curl_version_info.zstd_buffer, i64 noundef 80, ptr noundef nonnull @.str.4, i32 noundef %13, i32 noundef %15, i32 noundef %16) #7
  store ptr @curl_version_info.zstd_buffer, ptr getelementptr inbounds nuw (i8, ptr @version_info, i64 176), align 8, !tbaa !21
  br label %18

18:                                               ; preds = %1, %30
  %19 = phi ptr [ @.str.34, %1 ], [ %32, %30 ]
  %.017 = phi i32 [ 0, %1 ], [ %.1, %30 ]
  %.0916 = phi ptr [ @features_table, %1 ], [ %31, %30 ]
  %.01015 = phi i64 [ 0, %1 ], [ %.111, %30 ]
  %20 = getelementptr inbounds nuw i8, ptr %.0916, i64 8
  %21 = load ptr, ptr %20, align 8, !tbaa !22
  %.not13 = icmp eq ptr %21, null
  br i1 %.not13, label %24, label %22

22:                                               ; preds = %18
  %23 = tail call i32 %21(ptr noundef nonnull @version_info) #7
  %.not14 = icmp eq i32 %23, 0
  br i1 %.not14, label %30, label %24

24:                                               ; preds = %22, %18
  %25 = getelementptr inbounds nuw i8, ptr %.0916, i64 16
  %26 = load i32, ptr %25, align 8, !tbaa !24
  %27 = or i32 %26, %.017
  %28 = add i64 %.01015, 1
  %29 = getelementptr inbounds nuw [17 x ptr], ptr @feature_names, i64 0, i64 %.01015
  store ptr %19, ptr %29, align 8, !tbaa !3
  br label %30

30:                                               ; preds = %22, %24
  %.111 = phi i64 [ %28, %24 ], [ %.01015, %22 ]
  %.1 = phi i32 [ %27, %24 ], [ %.017, %22 ]
  %31 = getelementptr inbounds nuw i8, ptr %.0916, i64 24
  %32 = load ptr, ptr %31, align 8, !tbaa !25
  %.not = icmp eq ptr %32, null
  br i1 %.not, label %33, label %18, !llvm.loop !26

33:                                               ; preds = %30
  %34 = getelementptr inbounds nuw [17 x ptr], ptr @feature_names, i64 0, i64 %.111
  store ptr null, ptr %34, align 8, !tbaa !3
  store i32 %.1, ptr getelementptr inbounds nuw (i8, ptr @version_info, i64 32), align 8, !tbaa !27
  ret ptr @version_info
}